; Function Attrs: nounwind uwtable
define internal ptr @method_get_text_signature(ptr noundef readonly captures(none) %0, ptr readnone captures(none) %1) #0 {
  %3 = getelementptr inbounds nuw i8, ptr %0, i64 40
  %4 = load ptr, ptr %3, align 8, !tbaa !31
  %5 = load ptr, ptr %4, align 8, !tbaa !142
  %6 = getelementptr inbounds nuw i8, ptr %4, i64 24
  %7 = load ptr, ptr %6, align 8, !tbaa !160
  %8 = getelementptr inbounds nuw i8, ptr %4, i64 16
  %9 = load i32, ptr %8, align 8, !tbaa !33
  %10 = tail call ptr @_PyType_GetTextSignatureFromInternalDoc(ptr noundef %5, ptr noundef %7, i32 noundef %9) #9
  ret ptr %10
}